target datalayout = "e-m:e-p270:32:32-p271:32:32-p272:64:64-i64:64-i128:128-f80:128-n8:16:32:64-S128"
target triple = "x86_64-pc-linux-gnu"

%"struct.vcpkg::msg::MessageT" = type { i64 }
%"struct.vcpkg::StringView" = type { ptr, i64 }
%"class.std::__cxx11::basic_string" = type { %"struct.std::__cxx11::basic_string<char>::_Alloc_hider", i64, %union.anon }
%"struct.std::__cxx11::basic_string<char>::_Alloc_hider" = type { ptr }
%union.anon = type { i64, [8 x i8] }
%"struct.vcpkg::LocalizedString" = type { %"class.std::__cxx11::basic_string" }
%"struct.vcpkg::LineInfo" = type { i32, ptr }
%"struct.vcpkg::MetadataMessage" = type { i32, %union.anon.15 }
%union.anon.15 = type { ptr }

@.str = private unnamed_addr constant [126 x i8] c"generated/home/dtcxzyw/WorkSpace/Projects/compilers/llvm-opt-benchmark/bench/vcpkg/vcpkg-tool/src/vcpkg/vcpkgcmdarguments.cpp\00", align 1

; Function Attrs: mustprogress nounwind uwtable
define linkonce_odr dso_local void @_ZN5vcpkg10StringViewC2EPKc(ptr noundef nonnull align 8 dereferenceable(16) %0, ptr noundef %1) unnamed_addr #0 comdat align 2 {
  %3 = alloca ptr, align 8
  %4 = alloca ptr, align 8
  store ptr %0, ptr %3, align 8, !tbaa !32
  store ptr %1, ptr %4, align 8, !tbaa !34
  %5 = load ptr, ptr %3, align 8
  %6 = getelementptr inbounds nuw %"struct.vcpkg::StringView", ptr %5, i32 0, i32 0
  %7 = load ptr, ptr %4, align 8, !tbaa !34
  store ptr %7, ptr %6, align 8, !tbaa !35
  %8 = getelementptr inbounds nuw %"struct.vcpkg::StringView", ptr %5, i32 0, i32 1
  %9 = load ptr, ptr %4, align 8, !tbaa !34
  %10 = call i64 @strlen(ptr noundef %9) #24
  store i64 %10, ptr %8, align 8, !tbaa !37
  ret void
}

; Function Attrs: mustprogress uwtable
define dso_local void @_ZNK5vcpkg15MetadataMessage9to_stringEv(ptr dead_on_unwind noalias writable sret(%"struct.vcpkg::LocalizedString") align 8 %0, ptr noundef nonnull align 8 dereferenceable(16) %1) #2 align 2 {
  %3 = alloca ptr, align 8
  %4 = alloca ptr, align 8
  %5 = alloca %"struct.vcpkg::msg::MessageT", align 8
  %6 = alloca %"struct.vcpkg::StringView", align 8
  %7 = alloca %"struct.vcpkg::LineInfo", align 8
  store ptr %0, ptr %3, align 8
  store ptr %1, ptr %4, align 8, !tbaa !18
  %8 = load ptr, ptr %4, align 8
  %9 = getelementptr inbounds nuw %"struct.vcpkg::MetadataMessage", ptr %8, i32 0, i32 0
  %10 = load i32, ptr %9, align 8, !tbaa !20
  switch i32 %10, label %27 [
    i32 1, label %11
    i32 2, label %16
    i32 3, label %23
    i32 0, label %26
  ]

11:                                               ; preds = %2
  %12 = getelementptr inbounds nuw %"struct.vcpkg::MetadataMessage", ptr %8, i32 0, i32 1
  %13 = load ptr, ptr %12, align 8, !tbaa !23
  call void @llvm.memcpy.p0.p0.i64(ptr align 8 %5, ptr align 8 %13, i64 8, i1 false), !tbaa.struct !24
  %14 = getelementptr inbounds nuw %"struct.vcpkg::msg::MessageT", ptr %5, i32 0, i32 0
  %15 = load i64, ptr %14, align 8
  call void @_ZN5vcpkg3msg6formatIJEJEEENS_15LocalizedStringENS0_8MessageTIJDpT_EEEDpNS0_6TagArgINS_8identityIS4_E4typeET0_EE(ptr dead_on_unwind writable sret(%"struct.vcpkg::LocalizedString") align 8 %0, i64 %15)
  br label %30

16:                                               ; preds = %2
  %17 = getelementptr inbounds nuw %"struct.vcpkg::MetadataMessage", ptr %8, i32 0, i32 1
  %18 = load ptr, ptr %17, align 8, !tbaa !23
  call void @_ZN5vcpkg10StringViewC2EPKc(ptr noundef nonnull align 8 dereferenceable(16) %6, ptr noundef %18) #21
  %19 = getelementptr inbounds nuw { ptr, i64 }, ptr %6, i32 0, i32 0
  %20 = load ptr, ptr %19, align 8
  %21 = getelementptr inbounds nuw { ptr, i64 }, ptr %6, i32 0, i32 1
  %22 = load i64, ptr %21, align 8
  call void @_ZN5vcpkg15LocalizedString8from_rawENS_10StringViewE(ptr dead_on_unwind writable sret(%"struct.vcpkg::LocalizedString") align 8 %0, ptr %20, i64 %22)
  br label %30

23:                                               ; preds = %2
  %24 = getelementptr inbounds nuw %"struct.vcpkg::MetadataMessage", ptr %8, i32 0, i32 1
  %25 = load ptr, ptr %24, align 8, !tbaa !23
  call void %25(ptr dead_on_unwind writable sret(%"struct.vcpkg::LocalizedString") align 8 %0)
  br label %30

26:                                               ; preds = %2
  br label %27

27:                                               ; preds = %2, %26
  call void @llvm.lifetime.start.p0(i64 16, ptr %7) #21
  %28 = getelementptr inbounds nuw %"struct.vcpkg::LineInfo", ptr %7, i32 0, i32 0
  store i32 213, ptr %28, align 8, !tbaa !27
  %29 = getelementptr inbounds nuw %"struct.vcpkg::LineInfo", ptr %7, i32 0, i32 1
  store ptr @.str, ptr %29, align 8, !tbaa !31
  call void @_ZN5vcpkg6Checks11unreachableERKNS_8LineInfoE(ptr noundef nonnull align 8 dereferenceable(16) %7) #23
  unreachable

30:                                               ; preds = %23, %16, %11
  ret void
}