; Function Attrs: mustprogress uwtable
define dso_local void @_ZNK5vcpkg15MetadataMessage9to_stringEv(ptr dead_on_unwind noalias writable sret(%"struct.vcpkg::LocalizedString") align 8 %0, ptr noundef nonnull readonly align 8 captures(none) dereferenceable(16) %1) local_unnamed_addr #4 align 2 {
  %3 = alloca %"struct.vcpkg::LineInfo", align 8
  %4 = load i32, ptr %1, align 8, !tbaa !19
  switch i32 %4, label %15 [
    i32 1, label %5
    i32 2, label %8
    i32 3, label %12
  ]

5:                                                ; preds = %2
  %6 = getelementptr inbounds nuw i8, ptr %1, i64 8
  %7 = load ptr, ptr %6, align 8, !tbaa !22
  %.sroa.0.0.copyload = load i64, ptr %7, align 8, !tbaa !15
  tail call void @_ZN5vcpkg3msg6formatIJEJEEENS_15LocalizedStringENS0_8MessageTIJDpT_EEEDpNS0_6TagArgINS_8identityIS4_E4typeET0_EE(ptr dead_on_unwind writable sret(%"struct.vcpkg::LocalizedString") align 8 %0, i64 %.sroa.0.0.copyload)
  br label %17

8:                                                ; preds = %2
  %9 = getelementptr inbounds nuw i8, ptr %1, i64 8
  %10 = load ptr, ptr %9, align 8, !tbaa !22
  %11 = tail call i64 @strlen(ptr noundef nonnull dereferenceable(1) %10) #29
  tail call void @_ZN5vcpkg15LocalizedString8from_rawENS_10StringViewE(ptr dead_on_unwind writable sret(%"struct.vcpkg::LocalizedString") align 8 %0, ptr nonnull %10, i64 %11)
  br label %17

12:                                               ; preds = %2
  %13 = getelementptr inbounds nuw i8, ptr %1, i64 8
  %14 = load ptr, ptr %13, align 8, !tbaa !22
  tail call void %14(ptr dead_on_unwind writable sret(%"struct.vcpkg::LocalizedString") align 8 %0)
  br label %17

15:                                               ; preds = %2
  call void @llvm.lifetime.start.p0(i64 16, ptr nonnull %3) #27
  store i32 213, ptr %3, align 8, !tbaa !23
  %16 = getelementptr inbounds nuw i8, ptr %3, i64 8
  store ptr @.str, ptr %16, align 8, !tbaa !26
  call void @_ZN5vcpkg6Checks11unreachableERKNS_8LineInfoE(ptr noundef nonnull align 8 dereferenceable(16) %3) #30
  unreachable

17:                                               ; preds = %12, %8, %5
  ret void
}